; Function Attrs: null_pointer_is_valid sspstrong uwtable
define hidden i32 @mapi_dissect_struct_LogonTime(ptr noundef %0, i32 noundef %1, ptr noundef %2, ptr noundef %3, ptr noundef %4, ptr noundef %5, i32 noundef %6, i32 noundef %7) local_unnamed_addr #0 {
  %9 = alloca i8, align 1
  %10 = getelementptr inbounds nuw i8, ptr %4, i64 26
  %11 = load i8, ptr %10, align 2, !range !9, !noundef !10
  store i8 1, ptr %10, align 2
  %.not = icmp eq ptr %3, null
  br i1 %.not, label %16, label %12

12:                                               ; preds = %8
  %13 = tail call ptr @proto_tree_add_item(ptr noundef nonnull %3, i32 noundef %6, ptr noundef %0, i32 noundef %1, i32 noundef -1, i32 noundef 0)
  %14 = load i32, ptr @ett_mapi_LogonTime, align 4
  %15 = tail call ptr @proto_item_add_subtree(ptr noundef %13, i32 noundef %14)
  br label %16

16:                                               ; preds = %12, %8
  %.056 = phi ptr [ %15, %12 ], [ null, %8 ]
  %.0 = phi ptr [ %13, %12 ], [ null, %8 ]
  %17 = load i32, ptr @hf_mapi_LogonTime_Seconds, align 4
  %18 = tail call i32 @PIDL_dissect_uint8(ptr noundef %0, i32 noundef %1, ptr noundef %2, ptr noundef %.056, ptr noundef %4, ptr noundef %5, i32 noundef %17, i32 noundef 0)
  %19 = load i32, ptr @hf_mapi_LogonTime_Minutes, align 4
  %20 = tail call i32 @PIDL_dissect_uint8(ptr noundef %0, i32 noundef %18, ptr noundef %2, ptr noundef %.056, ptr noundef %4, ptr noundef %5, i32 noundef %19, i32 noundef 0)
  %21 = load i32, ptr @hf_mapi_LogonTime_Hour, align 4
  %22 = tail call i32 @PIDL_dissect_uint8(ptr noundef %0, i32 noundef %20, ptr noundef %2, ptr noundef %.056, ptr noundef %4, ptr noundef %5, i32 noundef %21, i32 noundef 0)
  %23 = load i32, ptr @hf_mapi_LogonTime_DayOfWeek, align 4
  call void @llvm.lifetime.start.p0(i64 1, ptr nonnull %9) #6
  store i8 0, ptr %9, align 1
  %24 = call i32 @dissect_ndr_uint8(ptr noundef %0, i32 noundef %22, ptr noundef %2, ptr noundef %.056, ptr noundef %4, ptr noundef %5, i32 noundef %23, ptr noundef nonnull %9)
  call void @llvm.lifetime.end.p0(i64 1, ptr nonnull %9) #6
  %25 = load i32, ptr @hf_mapi_LogonTime_Day, align 4
  %26 = call i32 @PIDL_dissect_uint8(ptr noundef %0, i32 noundef %24, ptr noundef %2, ptr noundef %.056, ptr noundef %4, ptr noundef %5, i32 noundef %25, i32 noundef 0)
  %27 = load i32, ptr @hf_mapi_LogonTime_Month, align 4
  %28 = call i32 @PIDL_dissect_uint8(ptr noundef %0, i32 noundef %26, ptr noundef %2, ptr noundef %.056, ptr noundef %4, ptr noundef %5, i32 noundef %27, i32 noundef 0)
  %29 = load i32, ptr @hf_mapi_LogonTime_Year, align 4
  %30 = call i32 @PIDL_dissect_uint16(ptr noundef %0, i32 noundef %28, ptr noundef %2, ptr noundef %.056, ptr noundef %4, ptr noundef %5, i32 noundef %29, i32 noundef 0)
  %31 = sub i32 %30, %1
  call void @proto_item_set_len(ptr noundef %.0, i32 noundef %31)
  store i8 %11, ptr %10, align 2
  ret i32 %30
}